SF:C:\Users\mathi\programming\VS code\rust\RayTracingInOneWeekend\src\bin\render.rs
FN:16,_RNvCs35B0X6lIqui_6render4main
FNDA:0,_RNvCs35B0X6lIqui_6render4main
FNF:1
FNH:0
DA:16,0
DA:17,0
DA:18,0
DA:19,0
DA:20,0
DA:21,0
DA:22,0
DA:23,0
DA:24,0
DA:25,0
DA:26,0
DA:27,0
DA:28,0
DA:30,0
DA:31,0
DA:32,0
DA:33,0
DA:34,0
DA:35,0
DA:36,0
DA:37,0
DA:38,0
DA:39,0
DA:40,0
DA:41,0
DA:42,0
DA:43,0
DA:44,0
DA:45,0
DA:46,0
DA:47,0
DA:48,0
DA:49,0
DA:50,0
DA:51,0
DA:52,0
DA:53,0
DA:54,0
DA:55,0
DA:56,0
DA:57,0
DA:61,0
DA:62,0
DA:63,0
DA:64,0
DA:65,0
DA:66,0
DA:67,0
DA:68,0
DA:69,0
DA:70,0
DA:71,0
DA:72,0
DA:73,0
DA:74,0
DA:75,0
DA:76,0
DA:77,0
DA:78,0
DA:79,0
DA:81,0
DA:82,0
DA:83,0
DA:84,0
DA:85,0
BRF:0
BRH:0
LF:65
LH:0
end_of_record
SF:C:\Users\mathi\programming\VS code\rust\RayTracingInOneWeekend\src\gpu\grid_nd.rs
FN:604,_RNvNtNtNtCsii0YJvqt17R_17simple_ray_tracer3gpu7grid_nd14iterator_testss_7test_1d
FN:625,_RNvNtNtNtCsii0YJvqt17R_17simple_ray_tracer3gpu7grid_nd14iterator_testss_7test_2d
FN:658,_RNvNtNtNtCsii0YJvqt17R_17simple_ray_tracer3gpu7grid_nd14iterator_testss_7test_3d
FN:27,_RNvMNtNtCsii0YJvqt17R_17simple_ray_tracer3gpu7grid_ndINtB2_6GridNDmKj1_E2atB6_
FN:32,_RNvMNtNtCsii0YJvqt17R_17simple_ray_tracer3gpu7grid_ndINtB2_6GridNDmKj1_E6at_mutB6_
FN:69,_RNvMs0_NtNtCsii0YJvqt17R_17simple_ray_tracer3gpu7grid_ndINtB5_13GridViewNDMutmKj1_E2atB9_
FN:74,_RNvMs0_NtNtCsii0YJvqt17R_17simple_ray_tracer3gpu7grid_ndINtB5_13GridViewNDMutmKj1_E6at_mutB9_
FN:86,_RNvMs1_NtNtCsii0YJvqt17R_17simple_ray_tracer3gpu7grid_ndINtB5_13GridViewNDMutmKj2_E2atB9_
FN:97,_RNvMs1_NtNtCsii0YJvqt17R_17simple_ray_tracer3gpu7grid_ndINtB5_13GridViewNDMutmKj2_E6at_mutB9_
FN:111,_RNvMs2_NtNtCsii0YJvqt17R_17simple_ray_tracer3gpu7grid_ndINtB5_10GridViewNDmKj1_E2atB9_
FN:123,_RNvMs3_NtNtCsii0YJvqt17R_17simple_ray_tracer3gpu7grid_ndINtB5_10GridViewNDmKj2_E2atB9_
FN:138,_RNvMs4_NtNtCsii0YJvqt17R_17simple_ray_tracer3gpu7grid_ndINtB5_6GridNDmKj1_E10new_zeroedB9_
FN:138,_RNvMs4_NtNtCsii0YJvqt17R_17simple_ray_tracer3gpu7grid_ndINtB5_6GridNDmKj2_E10new_zeroedB9_
FN:138,_RNvMs4_NtNtCsii0YJvqt17R_17simple_ray_tracer3gpu7grid_ndINtB5_6GridNDmKj3_E10new_zeroedB9_
FN:44,_RNvMs_NtNtCsii0YJvqt17R_17simple_ray_tracer3gpu7grid_ndINtB4_6GridNDmKj2_E2atB8_
FN:55,_RNvMs_NtNtCsii0YJvqt17R_17simple_ray_tracer3gpu7grid_ndINtB4_6GridNDmKj2_E6at_mutB8_
FN:44,_RNvMs_NtNtCsii0YJvqt17R_17simple_ray_tracer3gpu7grid_ndINtB4_6GridNDmKj3_E2atB8_
FN:55,_RNvMs_NtNtCsii0YJvqt17R_17simple_ray_tracer3gpu7grid_ndINtB4_6GridNDmKj3_E6at_mutB8_
FN:329,_RNvXs6_NtNtCsii0YJvqt17R_17simple_ray_tracer3gpu7grid_ndRINtB5_6GridNDmKj1_ENtNtNtNtCsh7Pghea5ysh_4core4iter6traits7collect12IntoIterator9into_iterB9_
FN:345,_RNvXs7_NtNtCsii0YJvqt17R_17simple_ray_tracer3gpu7grid_ndINtB5_12GridViewItermKj1_ENtNtNtNtCsh7Pghea5ysh_4core4iter6traits8iterator8Iterator4nextB9_
FN:365,_RNvXs8_NtNtCsii0YJvqt17R_17simple_ray_tracer3gpu7grid_ndRINtB5_6GridNDmKj2_ENtNtNtNtCsh7Pghea5ysh_4core4iter6traits7collect12IntoIterator9into_iterB9_
FN:365,_RNvXs8_NtNtCsii0YJvqt17R_17simple_ray_tracer3gpu7grid_ndRINtB5_6GridNDmKj3_ENtNtNtNtCsh7Pghea5ysh_4core4iter6traits7collect12IntoIterator9into_iterB9_
FN:385,_RNvXs9_NtNtCsii0YJvqt17R_17simple_ray_tracer3gpu7grid_ndINtB5_12GridViewItermKj2_ENtNtNtNtCsh7Pghea5ysh_4core4iter6traits8iterator8Iterator4nextB9_
FN:385,_RNvXs9_NtNtCsii0YJvqt17R_17simple_ray_tracer3gpu7grid_ndINtB5_12GridViewItermKj3_ENtNtNtNtCsh7Pghea5ysh_4core4iter6traits8iterator8Iterator4nextB9_
FN:413,_RNvXsa_NtNtCsii0YJvqt17R_17simple_ray_tracer3gpu7grid_ndQINtB5_6GridNDmKj1_ENtNtNtNtCsh7Pghea5ysh_4core4iter6traits7collect12IntoIterator9into_iterB9_
FN:429,_RNvXsb_NtNtCsii0YJvqt17R_17simple_ray_tracer3gpu7grid_ndINtB5_15GridViewIterMutmKj1_ENtNtNtNtCsh7Pghea5ysh_4core4iter6traits8iterator8Iterator4nextB9_
FN:449,_RNvXsc_NtNtCsii0YJvqt17R_17simple_ray_tracer3gpu7grid_ndQINtB5_6GridNDmKj2_ENtNtNtNtCsh7Pghea5ysh_4core4iter6traits7collect12IntoIterator9into_iterB9_
FN:449,_RNvXsc_NtNtCsii0YJvqt17R_17simple_ray_tracer3gpu7grid_ndQINtB5_6GridNDmKj3_ENtNtNtNtCsh7Pghea5ysh_4core4iter6traits7collect12IntoIterator9into_iterB9_
FN:469,_RNvXsd_NtNtCsii0YJvqt17R_17simple_ray_tracer3gpu7grid_ndINtB5_15GridViewIterMutmKj2_ENtNtNtNtCsh7Pghea5ysh_4core4iter6traits8iterator8Iterator4nextB9_
FN:469,_RNvXsd_NtNtCsii0YJvqt17R_17simple_ray_tracer3gpu7grid_ndINtB5_15GridViewIterMutmKj3_ENtNtNtNtCsh7Pghea5ysh_4core4iter6traits8iterator8Iterator4nextB9_
FN:489,_RNvXse_NtNtCsii0YJvqt17R_17simple_ray_tracer3gpu7grid_ndRINtB5_10GridViewNDmKj1_ENtNtNtNtCsh7Pghea5ysh_4core4iter6traits7collect12IntoIterator9into_iterB9_
FN:510,_RNvXsf_NtNtCsii0YJvqt17R_17simple_ray_tracer3gpu7grid_ndRINtB5_10GridViewNDmKj2_ENtNtNtNtCsh7Pghea5ysh_4core4iter6traits7collect12IntoIterator9into_iterB9_
FN:527,_RNvXsg_NtNtCsii0YJvqt17R_17simple_ray_tracer3gpu7grid_ndRINtB5_13GridViewNDMutmKj1_ENtNtNtNtCsh7Pghea5ysh_4core4iter6traits7collect12IntoIterator9into_iterB9_
FN:548,_RNvXsh_NtNtCsii0YJvqt17R_17simple_ray_tracer3gpu7grid_ndRINtB5_13GridViewNDMutmKj2_ENtNtNtNtCsh7Pghea5ysh_4core4iter6traits7collect12IntoIterator9into_iterB9_
FN:565,_RNvXsi_NtNtCsii0YJvqt17R_17simple_ray_tracer3gpu7grid_ndQINtB5_13GridViewNDMutmKj1_ENtNtNtNtCsh7Pghea5ysh_4core4iter6traits7collect12IntoIterator9into_iterB9_
FN:586,_RNvXsj_NtNtCsii0YJvqt17R_17simple_ray_tracer3gpu7grid_ndQINtB5_13GridViewNDMutmKj2_ENtNtNtNtCsh7Pghea5ysh_4core4iter6traits7collect12IntoIterator9into_iterB9_
FN:691,_RNCNCNvNtNtNtCsii0YJvqt17R_17simple_ray_tracer3gpu7grid_nd14iterator_testss_7test_3d00Bb_
FN:653,_RNCNvNtNtNtCsii0YJvqt17R_17simple_ray_tracer3gpu7grid_nd14iterator_testss_7test_2d0B9_
FN:688,_RNCNvNtNtNtCsii0YJvqt17R_17simple_ray_tracer3gpu7grid_nd14iterator_testss_7test_3d0B9_
FN:158,_RNvXs5_NtNtCsii0YJvqt17R_17simple_ray_tracer3gpu7grid_ndINtB5_6GridNDmKj1_ENtNtNtCsh7Pghea5ysh_4core3ops4drop4Drop4dropB9_
FN:158,_RNvXs5_NtNtCsii0YJvqt17R_17simple_ray_tracer3gpu7grid_ndINtB5_6GridNDmKj2_ENtNtNtCsh7Pghea5ysh_4core3ops4drop4Drop4dropB9_
FN:158,_RNvXs5_NtNtCsii0YJvqt17R_17simple_ray_tracer3gpu7grid_ndINtB5_6GridNDmKj3_ENtNtNtCsh7Pghea5ysh_4core3ops4drop4Drop4dropB9_
FN:242,_RNCNvNtNtNtCsii0YJvqt17R_17simple_ray_tracer3gpu7grid_nd5testss_39gridnd_indexing_out_of_bounds_1d_panics0B9_
FN:247,_RNCNvNtNtNtCsii0YJvqt17R_17simple_ray_tracer3gpu7grid_nd5testss_39gridnd_indexing_out_of_bounds_1d_panicss_0B9_
FN:263,_RNCNvNtNtNtCsii0YJvqt17R_17simple_ray_tracer3gpu7grid_nd5testss_39gridnd_indexing_out_of_bounds_2d_panics0B9_
FN:274,_RNCNvNtNtNtCsii0YJvqt17R_17simple_ray_tracer3gpu7grid_nd5testss_39gridnd_indexing_out_of_bounds_2d_panicss0_0B9_
FN:268,_RNCNvNtNtNtCsii0YJvqt17R_17simple_ray_tracer3gpu7grid_nd5testss_39gridnd_indexing_out_of_bounds_2d_panicss_0B9_
FN:291,_RNCNvNtNtNtCsii0YJvqt17R_17simple_ray_tracer3gpu7grid_nd5testss_39gridnd_indexing_out_of_bounds_nd_panics0B9_
FN:302,_RNCNvNtNtNtCsii0YJvqt17R_17simple_ray_tracer3gpu7grid_nd5testss_39gridnd_indexing_out_of_bounds_nd_panicss0_0B9_
FN:308,_RNCNvNtNtNtCsii0YJvqt17R_17simple_ray_tracer3gpu7grid_nd5testss_39gridnd_indexing_out_of_bounds_nd_panicss1_0B9_
FN:296,_RNCNvNtNtNtCsii0YJvqt17R_17simple_ray_tracer3gpu7grid_nd5testss_39gridnd_indexing_out_of_bounds_nd_panicss_0B9_
FN:187,_RNvNtNtNtCsii0YJvqt17R_17simple_ray_tracer3gpu7grid_nd5testss_24gridnd_indexing_1d_works
FN:201,_RNvNtNtNtCsii0YJvqt17R_17simple_ray_tracer3gpu7grid_nd5testss_24gridnd_indexing_2d_works
FN:217,_RNvNtNtNtCsii0YJvqt17R_17simple_ray_tracer3gpu7grid_nd5testss_24gridnd_indexing_nd_works
FN:174,_RNvNtNtNtCsii0YJvqt17R_17simple_ray_tracer3gpu7grid_nd5testss_30gridnd_zeroed_fills_with_zeros
FN:235,_RNvNtNtNtCsii0YJvqt17R_17simple_ray_tracer3gpu7grid_nd5testss_39gridnd_indexing_out_of_bounds_1d_panics
FN:255,_RNvNtNtNtCsii0YJvqt17R_17simple_ray_tracer3gpu7grid_nd5testss_39gridnd_indexing_out_of_bounds_2d_panics
FN:282,_RNvNtNtNtCsii0YJvqt17R_17simple_ray_tracer3gpu7grid_nd5testss_39gridnd_indexing_out_of_bounds_nd_panics
FNDA:1,_RNvNtNtNtCsii0YJvqt17R_17simple_ray_tracer3gpu7grid_nd14iterator_testss_7test_1d
FNDA:1,_RNvNtNtNtCsii0YJvqt17R_17simple_ray_tracer3gpu7grid_nd14iterator_testss_7test_2d
FNDA:1,_RNvNtNtNtCsii0YJvqt17R_17simple_ray_tracer3gpu7grid_nd14iterator_testss_7test_3d
FNDA:4,_RNvMNtNtCsii0YJvqt17R_17simple_ray_tracer3gpu7grid_ndINtB2_6GridNDmKj1_E2atB6_
FNDA:5,_RNvMNtNtCsii0YJvqt17R_17simple_ray_tracer3gpu7grid_ndINtB2_6GridNDmKj1_E6at_mutB6_
FNDA:8,_RNvMs0_NtNtCsii0YJvqt17R_17simple_ray_tracer3gpu7grid_ndINtB5_13GridViewNDMutmKj1_E2atB9_
FNDA:10,_RNvMs0_NtNtCsii0YJvqt17R_17simple_ray_tracer3gpu7grid_ndINtB5_13GridViewNDMutmKj1_E6at_mutB9_
FNDA:4,_RNvMs1_NtNtCsii0YJvqt17R_17simple_ray_tracer3gpu7grid_ndINtB5_13GridViewNDMutmKj2_E2atB9_
FNDA:11,_RNvMs1_NtNtCsii0YJvqt17R_17simple_ray_tracer3gpu7grid_ndINtB5_13GridViewNDMutmKj2_E6at_mutB9_
FNDA:12,_RNvMs2_NtNtCsii0YJvqt17R_17simple_ray_tracer3gpu7grid_ndINtB5_10GridViewNDmKj1_E2atB9_
FNDA:5,_RNvMs3_NtNtCsii0YJvqt17R_17simple_ray_tracer3gpu7grid_ndINtB5_10GridViewNDmKj2_E2atB9_
FNDA:4,_RNvMs4_NtNtCsii0YJvqt17R_17simple_ray_tracer3gpu7grid_ndINtB5_6GridNDmKj1_E10new_zeroedB9_
FNDA:6,_RNvMs4_NtNtCsii0YJvqt17R_17simple_ray_tracer3gpu7grid_ndINtB5_6GridNDmKj2_E10new_zeroedB9_
FNDA:6,_RNvMs4_NtNtCsii0YJvqt17R_17simple_ray_tracer3gpu7grid_ndINtB5_6GridNDmKj3_E10new_zeroedB9_
FNDA:5,_RNvMs_NtNtCsii0YJvqt17R_17simple_ray_tracer3gpu7grid_ndINtB4_6GridNDmKj2_E2atB8_
FNDA:11,_RNvMs_NtNtCsii0YJvqt17R_17simple_ray_tracer3gpu7grid_ndINtB4_6GridNDmKj2_E6at_mutB8_
FNDA:5,_RNvMs_NtNtCsii0YJvqt17R_17simple_ray_tracer3gpu7grid_ndINtB4_6GridNDmKj3_E2atB8_
FNDA:15,_RNvMs_NtNtCsii0YJvqt17R_17simple_ray_tracer3gpu7grid_ndINtB4_6GridNDmKj3_E6at_mutB8_
FNDA:3,_RNvXs6_NtNtCsii0YJvqt17R_17simple_ray_tracer3gpu7grid_ndRINtB5_6GridNDmKj1_ENtNtNtNtCsh7Pghea5ysh_4core4iter6traits7collect12IntoIterator9into_iterB9_
FNDA:402,_RNvXs7_NtNtCsii0YJvqt17R_17simple_ray_tracer3gpu7grid_ndINtB5_12GridViewItermKj1_ENtNtNtNtCsh7Pghea5ysh_4core4iter6traits8iterator8Iterator4nextB9_
FNDA:1,_RNvXs8_NtNtCsii0YJvqt17R_17simple_ray_tracer3gpu7grid_ndRINtB5_6GridNDmKj2_ENtNtNtNtCsh7Pghea5ysh_4core4iter6traits7collect12IntoIterator9into_iterB9_
FNDA:1,_RNvXs8_NtNtCsii0YJvqt17R_17simple_ray_tracer3gpu7grid_ndRINtB5_6GridNDmKj3_ENtNtNtNtCsh7Pghea5ysh_4core4iter6traits7collect12IntoIterator9into_iterB9_
FNDA:66,_RNvXs9_NtNtCsii0YJvqt17R_17simple_ray_tracer3gpu7grid_ndINtB5_12GridViewItermKj2_ENtNtNtNtCsh7Pghea5ysh_4core4iter6traits8iterator8Iterator4nextB9_
FNDA:6,_RNvXs9_NtNtCsii0YJvqt17R_17simple_ray_tracer3gpu7grid_ndINtB5_12GridViewItermKj3_ENtNtNtNtCsh7Pghea5ysh_4core4iter6traits8iterator8Iterator4nextB9_
FNDA:1,_RNvXsa_NtNtCsii0YJvqt17R_17simple_ray_tracer3gpu7grid_ndQINtB5_6GridNDmKj1_ENtNtNtNtCsh7Pghea5ysh_4core4iter6traits7collect12IntoIterator9into_iterB9_
FNDA:198,_RNvXsb_NtNtCsii0YJvqt17R_17simple_ray_tracer3gpu7grid_ndINtB5_15GridViewIterMutmKj1_ENtNtNtNtCsh7Pghea5ysh_4core4iter6traits8iterator8Iterator4nextB9_
FNDA:2,_RNvXsc_NtNtCsii0YJvqt17R_17simple_ray_tracer3gpu7grid_ndQINtB5_6GridNDmKj2_ENtNtNtNtCsh7Pghea5ysh_4core4iter6traits7collect12IntoIterator9into_iterB9_
FNDA:2,_RNvXsc_NtNtCsii0YJvqt17R_17simple_ray_tracer3gpu7grid_ndQINtB5_6GridNDmKj3_ENtNtNtNtCsh7Pghea5ysh_4core4iter6traits7collect12IntoIterator9into_iterB9_
FNDA:42,_RNvXsd_NtNtCsii0YJvqt17R_17simple_ray_tracer3gpu7grid_ndINtB5_15GridViewIterMutmKj2_ENtNtNtNtCsh7Pghea5ysh_4core4iter6traits8iterator8Iterator4nextB9_
FNDA:12,_RNvXsd_NtNtCsii0YJvqt17R_17simple_ray_tracer3gpu7grid_ndINtB5_15GridViewIterMutmKj3_ENtNtNtNtCsh7Pghea5ysh_4core4iter6traits8iterator8Iterator4nextB9_
FNDA:57,_RNvXse_NtNtCsii0YJvqt17R_17simple_ray_tracer3gpu7grid_ndRINtB5_10GridViewNDmKj1_ENtNtNtNtCsh7Pghea5ysh_4core4iter6traits7collect12IntoIterator9into_iterB9_
FNDA:5,_RNvXsf_NtNtCsii0YJvqt17R_17simple_ray_tracer3gpu7grid_ndRINtB5_10GridViewNDmKj2_ENtNtNtNtCsh7Pghea5ysh_4core4iter6traits7collect12IntoIterator9into_iterB9_
FNDA:7,_RNvXsg_NtNtCsii0YJvqt17R_17simple_ray_tracer3gpu7grid_ndRINtB5_13GridViewNDMutmKj1_ENtNtNtNtCsh7Pghea5ysh_4core4iter6traits7collect12IntoIterator9into_iterB9_
FNDA:5,_RNvXsh_NtNtCsii0YJvqt17R_17simple_ray_tracer3gpu7grid_ndRINtB5_13GridViewNDMutmKj2_ENtNtNtNtCsh7Pghea5ysh_4core4iter6traits7collect12IntoIterator9into_iterB9_
FNDA:32,_RNvXsi_NtNtCsii0YJvqt17R_17simple_ray_tracer3gpu7grid_ndQINtB5_13GridViewNDMutmKj1_ENtNtNtNtCsh7Pghea5ysh_4core4iter6traits7collect12IntoIterator9into_iterB9_
FNDA:5,_RNvXsj_NtNtCsii0YJvqt17R_17simple_ray_tracer3gpu7grid_ndQINtB5_13GridViewNDMutmKj2_ENtNtNtNtCsh7Pghea5ysh_4core4iter6traits7collect12IntoIterator9into_iterB9_
FNDA:25,_RNCNCNvNtNtNtCsii0YJvqt17R_17simple_ray_tracer3gpu7grid_nd14iterator_testss_7test_3d00Bb_
FNDA:5,_RNCNvNtNtNtCsii0YJvqt17R_17simple_ray_tracer3gpu7grid_nd14iterator_testss_7test_2d0B9_
FNDA:5,_RNCNvNtNtNtCsii0YJvqt17R_17simple_ray_tracer3gpu7grid_nd14iterator_testss_7test_3d0B9_
FNDA:4,_RNvXs5_NtNtCsii0YJvqt17R_17simple_ray_tracer3gpu7grid_ndINtB5_6GridNDmKj1_ENtNtNtCsh7Pghea5ysh_4core3ops4drop4Drop4dropB9_
FNDA:6,_RNvXs5_NtNtCsii0YJvqt17R_17simple_ray_tracer3gpu7grid_ndINtB5_6GridNDmKj2_ENtNtNtCsh7Pghea5ysh_4core3ops4drop4Drop4dropB9_
FNDA:6,_RNvXs5_NtNtCsii0YJvqt17R_17simple_ray_tracer3gpu7grid_ndINtB5_6GridNDmKj3_ENtNtNtCsh7Pghea5ysh_4core3ops4drop4Drop4dropB9_
FNDA:1,_RNCNvNtNtNtCsii0YJvqt17R_17simple_ray_tracer3gpu7grid_nd5testss_39gridnd_indexing_out_of_bounds_1d_panics0B9_
FNDA:1,_RNCNvNtNtNtCsii0YJvqt17R_17simple_ray_tracer3gpu7grid_nd5testss_39gridnd_indexing_out_of_bounds_1d_panicss_0B9_
FNDA:1,_RNCNvNtNtNtCsii0YJvqt17R_17simple_ray_tracer3gpu7grid_nd5testss_39gridnd_indexing_out_of_bounds_2d_panics0B9_
FNDA:1,_RNCNvNtNtNtCsii0YJvqt17R_17simple_ray_tracer3gpu7grid_nd5testss_39gridnd_indexing_out_of_bounds_2d_panicss0_0B9_
FNDA:1,_RNCNvNtNtNtCsii0YJvqt17R_17simple_ray_tracer3gpu7grid_nd5testss_39gridnd_indexing_out_of_bounds_2d_panicss_0B9_
FNDA:1,_RNCNvNtNtNtCsii0YJvqt17R_17simple_ray_tracer3gpu7grid_nd5testss_39gridnd_indexing_out_of_bounds_nd_panics0B9_
FNDA:1,_RNCNvNtNtNtCsii0YJvqt17R_17simple_ray_tracer3gpu7grid_nd5testss_39gridnd_indexing_out_of_bounds_nd_panicss0_0B9_
FNDA:1,_RNCNvNtNtNtCsii0YJvqt17R_17simple_ray_tracer3gpu7grid_nd5testss_39gridnd_indexing_out_of_bounds_nd_panicss1_0B9_
FNDA:1,_RNCNvNtNtNtCsii0YJvqt17R_17simple_ray_tracer3gpu7grid_nd5testss_39gridnd_indexing_out_of_bounds_nd_panicss_0B9_
FNDA:1,_RNvNtNtNtCsii0YJvqt17R_17simple_ray_tracer3gpu7grid_nd5testss_24gridnd_indexing_1d_works
FNDA:1,_RNvNtNtNtCsii0YJvqt17R_17simple_ray_tracer3gpu7grid_nd5testss_24gridnd_indexing_2d_works
FNDA:1,_RNvNtNtNtCsii0YJvqt17R_17simple_ray_tracer3gpu7grid_nd5testss_24gridnd_indexing_nd_works
FNDA:1,_RNvNtNtNtCsii0YJvqt17R_17simple_ray_tracer3gpu7grid_nd5testss_30gridnd_zeroed_fills_with_zeros
FNDA:1,_RNvNtNtNtCsii0YJvqt17R_17simple_ray_tracer3gpu7grid_nd5testss_39gridnd_indexing_out_of_bounds_1d_panics
FNDA:1,_RNvNtNtNtCsii0YJvqt17R_17simple_ray_tracer3gpu7grid_nd5testss_39gridnd_indexing_out_of_bounds_2d_panics
FNDA:1,_RNvNtNtNtCsii0YJvqt17R_17simple_ray_tracer3gpu7grid_nd5testss_39gridnd_indexing_out_of_bounds_nd_panics
FNF:48
FNH:48
DA:27,4
DA:28,4
DA:30,3
DA:31,3
DA:32,5
DA:33,5
DA:35,4
DA:36,4
DA:44,10
DA:45,10
DA:46,10
DA:47,10
DA:48,10
DA:49,10
DA:50,10
DA:51,10
DA:52,10
DA:53,10
DA:54,10
DA:55,26
DA:56,26
DA:57,26
DA:58,26
DA:59,26
DA:60,26
DA:61,26
DA:62,26
DA:63,26
DA:64,26
DA:65,26
DA:69,8
DA:70,8
DA:72,6
DA:73,6
DA:74,10
DA:75,10
DA:77,8
DA:78,8
DA:86,4
DA:87,4
DA:88,4
DA:89,4
DA:90,4
DA:91,4
DA:92,4
DA:93,4
DA:94,4
DA:95,4
DA:96,4
DA:97,11
DA:98,11
DA:99,11
DA:100,11
DA:101,11
DA:102,11
DA:103,11
DA:104,11
DA:105,11
DA:106,11
DA:107,11
DA:111,12
DA:112,12
DA:114,9
DA:115,9
DA:123,5
DA:124,5
DA:125,5
DA:126,5
DA:127,5
DA:128,5
DA:129,5
DA:130,5
DA:131,5
DA:132,5
DA:133,5
DA:138,16
DA:139,16
DA:140,16
DA:141,16
DA:142,16
DA:143,16
DA:144,16
DA:145,16
DA:146,16
DA:147,16
DA:148,16
DA:149,16
DA:150,16
DA:151,16
DA:152,16
DA:153,16
DA:154,16
DA:158,16
DA:159,16
DA:160,16
DA:161,16
DA:162,16
DA:163,16
DA:164,16
DA:174,1
DA:175,1
DA:176,1
DA:177,1
DA:180,16
DA:181,16
DA:182,16
DA:184,1
DA:187,1
DA:188,1
DA:189,1
DA:190,1
DA:191,1
DA:192,1
DA:194,1
DA:195,1
DA:196,1
DA:197,1
DA:198,1
DA:201,1
DA:202,1
DA:203,1
DA:204,1
DA:205,1
DA:206,1
DA:207,1
DA:209,1
DA:210,1
DA:211,1
DA:212,1
DA:213,1
DA:214,1
DA:217,1
DA:218,1
DA:219,1
DA:220,1
DA:221,1
DA:222,1
DA:223,1
DA:224,1
DA:226,1
DA:227,1
DA:228,1
DA:229,1
DA:230,1
DA:231,1
DA:232,1
DA:235,1
DA:236,1
DA:237,1
DA:238,1
DA:239,1
DA:240,1
DA:241,1
DA:242,1
DA:243,1
DA:244,1
DA:245,1
DA:247,1
DA:248,1
DA:249,1
DA:250,1
DA:251,1
DA:252,1
DA:255,1
DA:256,1
DA:257,1
DA:258,1
DA:259,1
DA:260,1
DA:261,1
DA:262,1
DA:263,1
DA:264,1
DA:265,1
DA:266,1
DA:268,1
DA:269,1
DA:270,1
DA:271,1
DA:272,1
DA:274,1
DA:275,1
DA:276,1
DA:277,1
DA:278,1
DA:279,1
DA:282,1
DA:283,1
DA:284,1
DA:285,1
DA:286,1
DA:287,1
DA:288,1
DA:289,1
DA:290,1
DA:291,1
DA:292,1
DA:293,1
DA:294,1
DA:296,1
DA:297,1
DA:298,1
DA:299,1
DA:300,1
DA:302,1
DA:303,1
DA:304,1
DA:305,1
DA:306,1
DA:308,1
DA:309,1
DA:310,1
DA:311,1
DA:312,1
DA:313,1
DA:329,3
DA:330,3
DA:331,3
DA:332,3
DA:333,3
DA:334,3
DA:335,3
DA:336,3
DA:337,3
DA:338,3
DA:339,3
DA:345,402
DA:346,402
DA:347,67
DA:348,335
DA:349,335
DA:350,335
DA:351,335
DA:352,335
DA:353,335
DA:354,402
DA:365,2
DA:366,2
DA:367,2
DA:368,2
DA:369,2
DA:370,2
DA:371,2
DA:372,2
DA:373,2
DA:374,2
DA:375,2
DA:385,72
DA:386,72
DA:387,12
DA:388,60
DA:389,60
DA:390,60
DA:391,60
DA:392,60
DA:393,60
DA:394,60
DA:395,60
DA:396,60
DA:397,60
DA:398,72
DA:413,1
DA:414,1
DA:415,1
DA:416,1
DA:417,1
DA:418,1
DA:419,1
DA:420,1
DA:421,1
DA:422,1
DA:423,1
DA:429,198
DA:430,198
DA:431,33
DA:432,165
DA:433,165
DA:434,165
DA:435,165
DA:436,165
DA:437,165
DA:438,198
DA:449,4
DA:450,4
DA:451,4
DA:452,4
DA:453,4
DA:454,4
DA:455,4
DA:456,4
DA:457,4
DA:458,4
DA:459,4
DA:469,54
DA:470,54
DA:471,9
DA:472,45
DA:473,45
DA:474,45
DA:475,45
DA:476,45
DA:477,45
DA:478,45
DA:479,45
DA:480,45
DA:481,45
DA:482,54
DA:489,57
DA:490,57
DA:491,57
DA:492,57
DA:493,57
DA:494,57
DA:495,57
DA:496,57
DA:497,57
DA:498,57
DA:499,57
DA:510,5
DA:511,5
DA:512,5
DA:513,5
DA:514,5
DA:515,5
DA:516,5
DA:517,5
DA:518,5
DA:519,5
DA:520,5
DA:527,7
DA:528,7
DA:529,7
DA:530,7
DA:531,7
DA:532,7
DA:533,7
DA:534,7
DA:535,7
DA:536,7
DA:537,7
DA:548,5
DA:549,5
DA:550,5
DA:551,5
DA:552,5
DA:553,5
DA:554,5
DA:555,5
DA:556,5
DA:557,5
DA:558,5
DA:565,32
DA:566,32
DA:567,32
DA:568,32
DA:569,32
DA:570,32
DA:571,32
DA:572,32
DA:573,32
DA:574,32
DA:575,32
DA:586,5
DA:587,5
DA:588,5
DA:589,5
DA:590,5
DA:591,5
DA:592,5
DA:593,5
DA:594,5
DA:595,5
DA:596,5
DA:604,1
DA:605,1
DA:606,1
DA:607,6
DA:608,5
DA:612,6
DA:613,5
DA:614,5
DA:616,6
DA:617,5
DA:620,1
DA:621,1
DA:622,1
DA:625,1
DA:626,1
DA:627,1
DA:628,5
DA:629,5
DA:631,5
DA:632,5
DA:635,6
DA:636,30
DA:637,25
DA:638,25
DA:641,6
DA:642,30
DA:643,25
DA:647,5
DA:648,5
DA:649,5
DA:651,1
DA:652,1
DA:653,5
DA:654,1
DA:655,1
DA:658,1
DA:659,1
DA:660,1
DA:661,5
DA:662,5
DA:664,5
DA:665,5
DA:668,6
DA:669,30
DA:670,150
DA:671,125
DA:672,125
DA:676,6
DA:677,30
DA:678,150
DA:679,125
DA:684,5
DA:685,5
DA:686,5
DA:688,5
DA:689,5
DA:690,5
DA:691,25
DA:692,5
DA:693,1
DA:694,1
BRDA:346,0,0,67
BRDA:346,0,1,335
BRDA:386,0,0,11
BRDA:386,0,1,55
BRDA:386,1,2,1
BRDA:386,1,3,5
BRDA:430,0,0,33
BRDA:430,0,1,165
BRDA:470,0,0,7
BRDA:470,0,1,35
BRDA:470,1,2,2
BRDA:470,1,3,10
BRF:8
BRH:8
LF:456
LH:456
end_of_record
SF:C:\Users\mathi\programming\VS code\rust\RayTracingInOneWeekend\src\lib.rs
FN:15,_RINvCsii0YJvqt17R_17simple_ray_tracer13print_wrapperpEB2_
FNDA:0,_RINvCsii0YJvqt17R_17simple_ray_tracer13print_wrapperpEB2_
FNF:1
FNH:0
DA:15,0
DA:16,0
DA:17,0
DA:18,0
DA:19,0
DA:20,0
DA:21,0
DA:22,0
DA:23,0
BRF:0
BRH:0
LF:9
LH:0
end_of_record
SF:C:\Users\mathi\programming\VS code\rust\RayTracingInOneWeekend\src\raytracer\camera.rs
FN:65,_RINvMNtNtCsii0YJvqt17R_17simple_ray_tracer9raytracer6cameraNtB3_6Camera6renderpEB7_
FN:120,_RNvMNtNtCsii0YJvqt17R_17simple_ray_tracer9raytracer6cameraNtB2_6Camera19defocus_disk_sample
FN:24,_RNvMNtNtCsii0YJvqt17R_17simple_ray_tracer9raytracer6cameraNtB2_6Camera3new
FN:28,_RNvMNtNtCsii0YJvqt17R_17simple_ray_tracer9raytracer6cameraNtB2_6Camera9initilize
FNDA:0,_RINvMNtNtCsii0YJvqt17R_17simple_ray_tracer9raytracer6cameraNtB3_6Camera6renderpEB7_
FNDA:0,_RNvMNtNtCsii0YJvqt17R_17simple_ray_tracer9raytracer6cameraNtB2_6Camera19defocus_disk_sample
FNDA:0,_RNvMNtNtCsii0YJvqt17R_17simple_ray_tracer9raytracer6cameraNtB2_6Camera3new
FNDA:0,_RNvMNtNtCsii0YJvqt17R_17simple_ray_tracer9raytracer6cameraNtB2_6Camera9initilize
FNF:4
FNH:0
DA:24,0
DA:25,0
DA:26,0
DA:28,0
DA:29,0
DA:30,0
DA:31,0
DA:32,0
DA:33,0
DA:34,0
DA:35,0
DA:36,0
DA:37,0
DA:38,0
DA:39,0
DA:40,0
DA:41,0
DA:42,0
DA:43,0
DA:44,0
DA:45,0
DA:46,0
DA:47,0
DA:48,0
DA:49,0
DA:50,0
DA:51,0
DA:52,0
DA:53,0
DA:54,0
DA:55,0
DA:56,0
DA:57,0
DA:58,0
DA:59,0
DA:60,0
DA:61,0
DA:62,0
DA:63,0
DA:65,0
DA:66,0
DA:67,0
DA:68,0
DA:71,0
DA:72,0
DA:73,0
DA:74,0
DA:75,0
DA:76,0
DA:77,0
DA:78,0
DA:79,0
DA:80,0
DA:81,0
DA:82,0
DA:84,0
DA:85,0
DA:86,0
DA:87,0
DA:89,0
DA:90,0
DA:91,0
DA:92,0
DA:95,0
DA:96,0
DA:97,0
DA:99,0
DA:102,0
DA:103,0
DA:104,0
DA:105,0
DA:107,0
DA:108,0
DA:109,0
DA:110,0
DA:111,0
DA:113,0
DA:115,0
DA:116,0
DA:117,0
DA:118,0
DA:120,0
DA:121,0
DA:122,0
DA:123,0
BRF:0
BRH:0
LF:85
LH:0
end_of_record
SF:C:\Users\mathi\programming\VS code\rust\RayTracingInOneWeekend\src\raytracer\color.rs
FN:17,_RNCNvMNtNtCsii0YJvqt17R_17simple_ray_tracer9raytracer5colorNtB4_5Color15linear_to_gamma0B8_
FN:23,_RNCNvMNtNtCsii0YJvqt17R_17simple_ray_tracer9raytracer5colorNtB4_5Color6to_rgb0B8_
FN:16,_RNvMNtNtCsii0YJvqt17R_17simple_ray_tracer9raytracer5colorNtB2_5Color15linear_to_gamma
FN:12,_RNvMNtNtCsii0YJvqt17R_17simple_ray_tracer9raytracer5colorNtB2_5Color3new
FN:27,_RNvMNtNtCsii0YJvqt17R_17simple_ray_tracer9raytracer5colorNtB2_5Color4lerp
FN:31,_RNvMNtNtCsii0YJvqt17R_17simple_ray_tracer9raytracer5colorNtB2_5Color5black
FN:35,_RNvMNtNtCsii0YJvqt17R_17simple_ray_tracer9raytracer5colorNtB2_5Color5white
FN:39,_RNvMNtNtCsii0YJvqt17R_17simple_ray_tracer9raytracer5colorNtB2_5Color6random
FN:20,_RNvMNtNtCsii0YJvqt17R_17simple_ray_tracer9raytracer5colorNtB2_5Color6to_rgb
FN:59,_RNvXs0_NtNtCsii0YJvqt17R_17simple_ray_tracer9raytracer5colorNtB5_5ColorINtNtNtCsh7Pghea5ysh_4core3ops5arith3AddfE3add
FN:65,_RNvXs1_NtNtCsii0YJvqt17R_17simple_ray_tracer9raytracer5colorNtB5_5ColorNtNtCsh7Pghea5ysh_4core3fmt7Display3fmt
FN:47,_RNvXs_NtNtCsii0YJvqt17R_17simple_ray_tracer9raytracer5colorNtB4_5ColorNtNtNtCsh7Pghea5ysh_4core3ops5arith3Mul3mul
FNDA:0,_RNCNvMNtNtCsii0YJvqt17R_17simple_ray_tracer9raytracer5colorNtB4_5Color15linear_to_gamma0B8_
FNDA:0,_RNCNvMNtNtCsii0YJvqt17R_17simple_ray_tracer9raytracer5colorNtB4_5Color6to_rgb0B8_
FNDA:0,_RNvMNtNtCsii0YJvqt17R_17simple_ray_tracer9raytracer5colorNtB2_5Color15linear_to_gamma
FNDA:0,_RNvMNtNtCsii0YJvqt17R_17simple_ray_tracer9raytracer5colorNtB2_5Color3new
FNDA:0,_RNvMNtNtCsii0YJvqt17R_17simple_ray_tracer9raytracer5colorNtB2_5Color4lerp
FNDA:0,_RNvMNtNtCsii0YJvqt17R_17simple_ray_tracer9raytracer5colorNtB2_5Color5black
FNDA:0,_RNvMNtNtCsii0YJvqt17R_17simple_ray_tracer9raytracer5colorNtB2_5Color5white
FNDA:0,_RNvMNtNtCsii0YJvqt17R_17simple_ray_tracer9raytracer5colorNtB2_5Color6random
FNDA:0,_RNvMNtNtCsii0YJvqt17R_17simple_ray_tracer9raytracer5colorNtB2_5Color6to_rgb
FNDA:0,_RNvXs0_NtNtCsii0YJvqt17R_17simple_ray_tracer9raytracer5colorNtB5_5ColorINtNtNtCsh7Pghea5ysh_4core3ops5arith3AddfE3add
FNDA:0,_RNvXs1_NtNtCsii0YJvqt17R_17simple_ray_tracer9raytracer5colorNtB5_5ColorNtNtCsh7Pghea5ysh_4core3fmt7Display3fmt
FNDA:0,_RNvXs_NtNtCsii0YJvqt17R_17simple_ray_tracer9raytracer5colorNtB4_5ColorNtNtNtCsh7Pghea5ysh_4core3ops5arith3Mul3mul
FNF:12
FNH:0
DA:12,0
DA:13,0
DA:14,0
DA:16,0
DA:17,0
DA:18,0
DA:20,0
DA:21,0
DA:22,0
DA:23,0
DA:24,0
DA:25,0
DA:27,0
DA:28,0
DA:29,0
DA:31,0
DA:32,0
DA:33,0
DA:35,0
DA:36,0
DA:37,0
DA:39,0
DA:40,0
DA:41,0
DA:47,0
DA:48,0
DA:49,0
DA:50,0
DA:51,0
DA:52,0
DA:53,0
DA:59,0
DA:60,0
DA:61,0
DA:65,0
DA:66,0
DA:67,0
DA:68,0
BRF:0
BRH:0
LF:40
LH:0
end_of_record
SF:C:\Users\mathi\programming\VS code\rust\RayTracingInOneWeekend\src\raytracer\hitable.rs
FN:22,_RNvMNtNtCsii0YJvqt17R_17simple_ray_tracer9raytracer7hitableNtB2_9HitRecord3new
FNDA:0,_RNvMNtNtCsii0YJvqt17R_17simple_ray_tracer9raytracer7hitableNtB2_9HitRecord3new
FNF:1
FNH:0
DA:22,0
DA:23,0
DA:24,0
DA:25,0
DA:26,0
DA:27,0
DA:28,0
DA:29,0
DA:30,0
DA:31,0
DA:32,0
DA:33,0
DA:34,0
DA:35,0
DA:36,0
BRF:0
BRH:0
LF:15
LH:0
end_of_record
SF:C:\Users\mathi\programming\VS code\rust\RayTracingInOneWeekend\src\raytracer\hitable_list.rs
FN:20,_RINvMNtNtCsii0YJvqt17R_17simple_ray_tracer9raytracer12hitable_listNtB3_11HitableList3addpEB7_
FN:14,_RNvMNtNtCsii0YJvqt17R_17simple_ray_tracer9raytracer12hitable_listNtB2_11HitableList3new
FN:26,_RNvXs_NtNtCsii0YJvqt17R_17simple_ray_tracer9raytracer12hitable_listNtB4_11HitableListNtNtB6_7hitable7Hitable3hit
FNDA:0,_RINvMNtNtCsii0YJvqt17R_17simple_ray_tracer9raytracer12hitable_listNtB3_11HitableList3addpEB7_
FNDA:0,_RNvMNtNtCsii0YJvqt17R_17simple_ray_tracer9raytracer12hitable_listNtB2_11HitableList3new
FNDA:0,_RNvXs_NtNtCsii0YJvqt17R_17simple_ray_tracer9raytracer12hitable_listNtB4_11HitableListNtNtB6_7hitable7Hitable3hit
FNF:3
FNH:0
DA:14,0
DA:15,0
DA:16,0
DA:17,0
DA:18,0
DA:20,0
DA:21,0
DA:22,0
DA:26,0
DA:27,0
DA:28,0
DA:30,0
DA:31,0
DA:32,0
DA:33,0
DA:34,0
DA:37,0
DA:38,0
BRF:0
BRH:0
LF:18
LH:0
end_of_record
SF:C:\Users\mathi\programming\VS code\rust\RayTracingInOneWeekend\src\raytracer\materials\dielectric.rs
FN:19,_RNvMNtNtNtCsii0YJvqt17R_17simple_ray_tracer9raytracer9materials10dielectricNtB2_10Dielectric11random_real
FN:24,_RNvMNtNtNtCsii0YJvqt17R_17simple_ray_tracer9raytracer9materials10dielectricNtB2_10Dielectric11reflectance
FN:14,_RNvMNtNtNtCsii0YJvqt17R_17simple_ray_tracer9raytracer9materials10dielectricNtB2_10Dielectric3new
FN:31,_RNvXs_NtNtNtCsii0YJvqt17R_17simple_ray_tracer9raytracer9materials10dielectricNtB4_10DielectricNtB6_8Material7scatter
FNDA:0,_RNvMNtNtNtCsii0YJvqt17R_17simple_ray_tracer9raytracer9materials10dielectricNtB2_10Dielectric11random_real
FNDA:0,_RNvMNtNtNtCsii0YJvqt17R_17simple_ray_tracer9raytracer9materials10dielectricNtB2_10Dielectric11reflectance
FNDA:0,_RNvMNtNtNtCsii0YJvqt17R_17simple_ray_tracer9raytracer9materials10dielectricNtB2_10Dielectric3new
FNDA:0,_RNvXs_NtNtNtCsii0YJvqt17R_17simple_ray_tracer9raytracer9materials10dielectricNtB4_10DielectricNtB6_8Material7scatter
FNF:4
FNH:0
DA:14,0
DA:15,0
DA:16,0
DA:19,0
DA:20,0
DA:21,0
DA:24,0
DA:25,0
DA:26,0
DA:27,0
DA:28,0
DA:31,0
DA:32,0
DA:33,0
DA:35,0
DA:38,0
DA:39,0
DA:40,0
DA:41,0
DA:42,0
DA:43,0
DA:44,0
DA:47,0
DA:50,0
DA:53,0
DA:54,0
DA:55,0
BRF:0
BRH:0
LF:27
LH:0
end_of_record
SF:C:\Users\mathi\programming\VS code\rust\RayTracingInOneWeekend\src\raytracer\materials\lambertian.rs
FN:10,_RNvMNtNtNtCsii0YJvqt17R_17simple_ray_tracer9raytracer9materials10lambertianNtB2_10Lambertian3new
FN:15,_RNvXs_NtNtNtCsii0YJvqt17R_17simple_ray_tracer9raytracer9materials10lambertianNtB4_10LambertianNtB6_8Material7scatter
FNDA:0,_RNvMNtNtNtCsii0YJvqt17R_17simple_ray_tracer9raytracer9materials10lambertianNtB2_10Lambertian3new
FNDA:0,_RNvXs_NtNtNtCsii0YJvqt17R_17simple_ray_tracer9raytracer9materials10lambertianNtB4_10LambertianNtB6_8Material7scatter
FNF:2
FNH:0
DA:10,0
DA:11,0
DA:12,0
DA:15,0
DA:16,0
DA:17,0
DA:18,0
DA:19,0
DA:20,0
DA:21,0
DA:22,0
BRF:0
BRH:0
LF:11
LH:0
end_of_record
SF:C:\Users\mathi\programming\VS code\rust\RayTracingInOneWeekend\src\raytracer\materials\metal.rs
FN:15,_RNvMNtNtNtCsii0YJvqt17R_17simple_ray_tracer9raytracer9materials5metalNtB2_5Metal3new
FN:20,_RNvXs_NtNtNtCsii0YJvqt17R_17simple_ray_tracer9raytracer9materials5metalNtB4_5MetalNtB6_8Material7scatter
FNDA:0,_RNvMNtNtNtCsii0YJvqt17R_17simple_ray_tracer9raytracer9materials5metalNtB2_5Metal3new
FNDA:0,_RNvXs_NtNtNtCsii0YJvqt17R_17simple_ray_tracer9raytracer9materials5metalNtB4_5MetalNtB6_8Material7scatter
FNF:2
FNH:0
DA:15,0
DA:16,0
DA:17,0
DA:20,0
DA:21,0
DA:22,0
DA:23,0
DA:24,0
DA:25,0
DA:26,0
DA:27,0
DA:28,0
BRF:0
BRH:0
LF:12
LH:0
end_of_record
SF:C:\Users\mathi\programming\VS code\rust\RayTracingInOneWeekend\src\raytracer\options.rs
FN:58,_RNCNvXNtNtCsii0YJvqt17R_17simple_ray_tracer9raytracer7optionsNtNtB6_4vec34Vec3NtNtNtCsh7Pghea5ysh_4core3str6traits7FromStr8from_str0B8_
FN:64,_RNCNvXNtNtCsii0YJvqt17R_17simple_ray_tracer9raytracer7optionsNtNtB6_4vec34Vec3NtNtNtCsh7Pghea5ysh_4core3str6traits7FromStr8from_strs0_0B8_
FN:61,_RNCNvXNtNtCsii0YJvqt17R_17simple_ray_tracer9raytracer7optionsNtNtB6_4vec34Vec3NtNtNtCsh7Pghea5ysh_4core3str6traits7FromStr8from_strs_0B8_
FN:12,_RNCNvXs1_NtNtCsii0YJvqt17R_17simple_ray_tracer9raytracer7optionsNtB7_13RenderOptionsNtNtCs3JYxyklKT9C_12clap_builder6derive14FromArgMatches20from_arg_matches_mut0Bb_
FN:20,_RNCNvXs1_NtNtCsii0YJvqt17R_17simple_ray_tracer9raytracer7optionsNtB7_13RenderOptionsNtNtCs3JYxyklKT9C_12clap_builder6derive14FromArgMatches20from_arg_matches_muts0_0Bb_
FN:24,_RNCNvXs1_NtNtCsii0YJvqt17R_17simple_ray_tracer9raytracer7optionsNtB7_13RenderOptionsNtNtCs3JYxyklKT9C_12clap_builder6derive14FromArgMatches20from_arg_matches_muts1_0Bb_
FN:28,_RNCNvXs1_NtNtCsii0YJvqt17R_17simple_ray_tracer9raytracer7optionsNtB7_13RenderOptionsNtNtCs3JYxyklKT9C_12clap_builder6derive14FromArgMatches20from_arg_matches_muts2_0Bb_
FN:31,_RNCNvXs1_NtNtCsii0YJvqt17R_17simple_ray_tracer9raytracer7optionsNtB7_13RenderOptionsNtNtCs3JYxyklKT9C_12clap_builder6derive14FromArgMatches20from_arg_matches_muts3_0Bb_
FN:33,_RNCNvXs1_NtNtCsii0YJvqt17R_17simple_ray_tracer9raytracer7optionsNtB7_13RenderOptionsNtNtCs3JYxyklKT9C_12clap_builder6derive14FromArgMatches20from_arg_matches_muts4_0Bb_
FN:35,_RNCNvXs1_NtNtCsii0YJvqt17R_17simple_ray_tracer9raytracer7optionsNtB7_13RenderOptionsNtNtCs3JYxyklKT9C_12clap_builder6derive14FromArgMatches20from_arg_matches_muts5_0Bb_
FN:39,_RNCNvXs1_NtNtCsii0YJvqt17R_17simple_ray_tracer9raytracer7optionsNtB7_13RenderOptionsNtNtCs3JYxyklKT9C_12clap_builder6derive14FromArgMatches20from_arg_matches_muts6_0Bb_
FN:41,_RNCNvXs1_NtNtCsii0YJvqt17R_17simple_ray_tracer9raytracer7optionsNtB7_13RenderOptionsNtNtCs3JYxyklKT9C_12clap_builder6derive14FromArgMatches20from_arg_matches_muts7_0Bb_
FN:45,_RNCNvXs1_NtNtCsii0YJvqt17R_17simple_ray_tracer9raytracer7optionsNtB7_13RenderOptionsNtNtCs3JYxyklKT9C_12clap_builder6derive14FromArgMatches20from_arg_matches_muts8_0Bb_
FN:16,_RNCNvXs1_NtNtCsii0YJvqt17R_17simple_ray_tracer9raytracer7optionsNtB7_13RenderOptionsNtNtCs3JYxyklKT9C_12clap_builder6derive14FromArgMatches20from_arg_matches_muts_0Bb_
FN:12,_RNCNvXs1_NtNtCsii0YJvqt17R_17simple_ray_tracer9raytracer7optionsNtB7_13RenderOptionsNtNtCs3JYxyklKT9C_12clap_builder6derive14FromArgMatches27update_from_arg_matches_mut0Bb_
FN:20,_RNCNvXs1_NtNtCsii0YJvqt17R_17simple_ray_tracer9raytracer7optionsNtB7_13RenderOptionsNtNtCs3JYxyklKT9C_12clap_builder6derive14FromArgMatches27update_from_arg_matches_muts0_0Bb_
FN:24,_RNCNvXs1_NtNtCsii0YJvqt17R_17simple_ray_tracer9raytracer7optionsNtB7_13RenderOptionsNtNtCs3JYxyklKT9C_12clap_builder6derive14FromArgMatches27update_from_arg_matches_muts1_0Bb_
FN:28,_RNCNvXs1_NtNtCsii0YJvqt17R_17simple_ray_tracer9raytracer7optionsNtB7_13RenderOptionsNtNtCs3JYxyklKT9C_12clap_builder6derive14FromArgMatches27update_from_arg_matches_muts2_0Bb_
FN:31,_RNCNvXs1_NtNtCsii0YJvqt17R_17simple_ray_tracer9raytracer7optionsNtB7_13RenderOptionsNtNtCs3JYxyklKT9C_12clap_builder6derive14FromArgMatches27update_from_arg_matches_muts3_0Bb_
FN:33,_RNCNvXs1_NtNtCsii0YJvqt17R_17simple_ray_tracer9raytracer7optionsNtB7_13RenderOptionsNtNtCs3JYxyklKT9C_12clap_builder6derive14FromArgMatches27update_from_arg_matches_muts4_0Bb_
FN:35,_RNCNvXs1_NtNtCsii0YJvqt17R_17simple_ray_tracer9raytracer7optionsNtB7_13RenderOptionsNtNtCs3JYxyklKT9C_12clap_builder6derive14FromArgMatches27update_from_arg_matches_muts5_0Bb_
FN:39,_RNCNvXs1_NtNtCsii0YJvqt17R_17simple_ray_tracer9raytracer7optionsNtB7_13RenderOptionsNtNtCs3JYxyklKT9C_12clap_builder6derive14FromArgMatches27update_from_arg_matches_muts6_0Bb_
FN:41,_RNCNvXs1_NtNtCsii0YJvqt17R_17simple_ray_tracer9raytracer7optionsNtB7_13RenderOptionsNtNtCs3JYxyklKT9C_12clap_builder6derive14FromArgMatches27update_from_arg_matches_muts7_0Bb_
FN:45,_RNCNvXs1_NtNtCsii0YJvqt17R_17simple_ray_tracer9raytracer7optionsNtB7_13RenderOptionsNtNtCs3JYxyklKT9C_12clap_builder6derive14FromArgMatches27update_from_arg_matches_muts8_0Bb_
FN:16,_RNCNvXs1_NtNtCsii0YJvqt17R_17simple_ray_tracer9raytracer7optionsNtB7_13RenderOptionsNtNtCs3JYxyklKT9C_12clap_builder6derive14FromArgMatches27update_from_arg_matches_muts_0Bb_
FN:11,_RNCNvXs2_NtNtCsii0YJvqt17R_17simple_ray_tracer9raytracer7optionsNtB7_13RenderOptionsNtNtCs3JYxyklKT9C_12clap_builder6derive4Args12augment_args0Bb_
FN:19,_RNCNvXs2_NtNtCsii0YJvqt17R_17simple_ray_tracer9raytracer7optionsNtB7_13RenderOptionsNtNtCs3JYxyklKT9C_12clap_builder6derive4Args12augment_argss0_0Bb_
FN:23,_RNCNvXs2_NtNtCsii0YJvqt17R_17simple_ray_tracer9raytracer7optionsNtB7_13RenderOptionsNtNtCs3JYxyklKT9C_12clap_builder6derive4Args12augment_argss1_0Bb_
FN:27,_RNCNvXs2_NtNtCsii0YJvqt17R_17simple_ray_tracer9raytracer7optionsNtB7_13RenderOptionsNtNtCs3JYxyklKT9C_12clap_builder6derive4Args12augment_argss2_0Bb_
FN:38,_RNCNvXs2_NtNtCsii0YJvqt17R_17simple_ray_tracer9raytracer7optionsNtB7_13RenderOptionsNtNtCs3JYxyklKT9C_12clap_builder6derive4Args12augment_argss3_0Bb_
FN:40,_RNCNvXs2_NtNtCsii0YJvqt17R_17simple_ray_tracer9raytracer7optionsNtB7_13RenderOptionsNtNtCs3JYxyklKT9C_12clap_builder6derive4Args12augment_argss4_0Bb_
FN:15,_RNCNvXs2_NtNtCsii0YJvqt17R_17simple_ray_tracer9raytracer7optionsNtB7_13RenderOptionsNtNtCs3JYxyklKT9C_12clap_builder6derive4Args12augment_argss_0Bb_
FN:11,_RNCNvXs2_NtNtCsii0YJvqt17R_17simple_ray_tracer9raytracer7optionsNtB7_13RenderOptionsNtNtCs3JYxyklKT9C_12clap_builder6derive4Args23augment_args_for_update0Bb_
FN:19,_RNCNvXs2_NtNtCsii0YJvqt17R_17simple_ray_tracer9raytracer7optionsNtB7_13RenderOptionsNtNtCs3JYxyklKT9C_12clap_builder6derive4Args23augment_args_for_updates0_0Bb_
FN:23,_RNCNvXs2_NtNtCsii0YJvqt17R_17simple_ray_tracer9raytracer7optionsNtB7_13RenderOptionsNtNtCs3JYxyklKT9C_12clap_builder6derive4Args23augment_args_for_updates1_0Bb_
FN:27,_RNCNvXs2_NtNtCsii0YJvqt17R_17simple_ray_tracer9raytracer7optionsNtB7_13RenderOptionsNtNtCs3JYxyklKT9C_12clap_builder6derive4Args23augment_args_for_updates2_0Bb_
FN:38,_RNCNvXs2_NtNtCsii0YJvqt17R_17simple_ray_tracer9raytracer7optionsNtB7_13RenderOptionsNtNtCs3JYxyklKT9C_12clap_builder6derive4Args23augment_args_for_updates3_0Bb_
FN:40,_RNCNvXs2_NtNtCsii0YJvqt17R_17simple_ray_tracer9raytracer7optionsNtB7_13RenderOptionsNtNtCs3JYxyklKT9C_12clap_builder6derive4Args23augment_args_for_updates4_0Bb_
FN:15,_RNCNvXs2_NtNtCsii0YJvqt17R_17simple_ray_tracer9raytracer7optionsNtB7_13RenderOptionsNtNtCs3JYxyklKT9C_12clap_builder6derive4Args23augment_args_for_updates_0Bb_
FN:71,_RNvMs_NtNtCsii0YJvqt17R_17simple_ray_tracer9raytracer7optionsNtB4_13RenderOptions12aspect_ratio
FN:82,_RNvMs_NtNtCsii0YJvqt17R_17simple_ray_tracer9raytracer7optionsNtB4_13RenderOptions14viewport_width
FN:76,_RNvMs_NtNtCsii0YJvqt17R_17simple_ray_tracer9raytracer7optionsNtB4_13RenderOptions15viewport_height
FN:51,_RNvXNtNtCsii0YJvqt17R_17simple_ray_tracer9raytracer7optionsNtNtB4_4vec34Vec3NtNtNtCsh7Pghea5ysh_4core3str6traits7FromStr8from_str
FNDA:0,_RNCNvXNtNtCsii0YJvqt17R_17simple_ray_tracer9raytracer7optionsNtNtB6_4vec34Vec3NtNtNtCsh7Pghea5ysh_4core3str6traits7FromStr8from_str0B8_
FNDA:0,_RNCNvXNtNtCsii0YJvqt17R_17simple_ray_tracer9raytracer7optionsNtNtB6_4vec34Vec3NtNtNtCsh7Pghea5ysh_4core3str6traits7FromStr8from_strs0_0B8_
FNDA:0,_RNCNvXNtNtCsii0YJvqt17R_17simple_ray_tracer9raytracer7optionsNtNtB6_4vec34Vec3NtNtNtCsh7Pghea5ysh_4core3str6traits7FromStr8from_strs_0B8_
FNDA:0,_RNCNvXs1_NtNtCsii0YJvqt17R_17simple_ray_tracer9raytracer7optionsNtB7_13RenderOptionsNtNtCs3JYxyklKT9C_12clap_builder6derive14FromArgMatches20from_arg_matches_mut0Bb_
FNDA:0,_RNCNvXs1_NtNtCsii0YJvqt17R_17simple_ray_tracer9raytracer7optionsNtB7_13RenderOptionsNtNtCs3JYxyklKT9C_12clap_builder6derive14FromArgMatches20from_arg_matches_muts0_0Bb_
FNDA:0,_RNCNvXs1_NtNtCsii0YJvqt17R_17simple_ray_tracer9raytracer7optionsNtB7_13RenderOptionsNtNtCs3JYxyklKT9C_12clap_builder6derive14FromArgMatches20from_arg_matches_muts1_0Bb_
FNDA:0,_RNCNvXs1_NtNtCsii0YJvqt17R_17simple_ray_tracer9raytracer7optionsNtB7_13RenderOptionsNtNtCs3JYxyklKT9C_12clap_builder6derive14FromArgMatches20from_arg_matches_muts2_0Bb_
FNDA:0,_RNCNvXs1_NtNtCsii0YJvqt17R_17simple_ray_tracer9raytracer7optionsNtB7_13RenderOptionsNtNtCs3JYxyklKT9C_12clap_builder6derive14FromArgMatches20from_arg_matches_muts3_0Bb_
FNDA:0,_RNCNvXs1_NtNtCsii0YJvqt17R_17simple_ray_tracer9raytracer7optionsNtB7_13RenderOptionsNtNtCs3JYxyklKT9C_12clap_builder6derive14FromArgMatches20from_arg_matches_muts4_0Bb_
FNDA:0,_RNCNvXs1_NtNtCsii0YJvqt17R_17simple_ray_tracer9raytracer7optionsNtB7_13RenderOptionsNtNtCs3JYxyklKT9C_12clap_builder6derive14FromArgMatches20from_arg_matches_muts5_0Bb_
FNDA:0,_RNCNvXs1_NtNtCsii0YJvqt17R_17simple_ray_tracer9raytracer7optionsNtB7_13RenderOptionsNtNtCs3JYxyklKT9C_12clap_builder6derive14FromArgMatches20from_arg_matches_muts6_0Bb_
FNDA:0,_RNCNvXs1_NtNtCsii0YJvqt17R_17simple_ray_tracer9raytracer7optionsNtB7_13RenderOptionsNtNtCs3JYxyklKT9C_12clap_builder6derive14FromArgMatches20from_arg_matches_muts7_0Bb_
FNDA:0,_RNCNvXs1_NtNtCsii0YJvqt17R_17simple_ray_tracer9raytracer7optionsNtB7_13RenderOptionsNtNtCs3JYxyklKT9C_12clap_builder6derive14FromArgMatches20from_arg_matches_muts8_0Bb_
FNDA:0,_RNCNvXs1_NtNtCsii0YJvqt17R_17simple_ray_tracer9raytracer7optionsNtB7_13RenderOptionsNtNtCs3JYxyklKT9C_12clap_builder6derive14FromArgMatches20from_arg_matches_muts_0Bb_
FNDA:0,_RNCNvXs1_NtNtCsii0YJvqt17R_17simple_ray_tracer9raytracer7optionsNtB7_13RenderOptionsNtNtCs3JYxyklKT9C_12clap_builder6derive14FromArgMatches27update_from_arg_matches_mut0Bb_
FNDA:0,_RNCNvXs1_NtNtCsii0YJvqt17R_17simple_ray_tracer9raytracer7optionsNtB7_13RenderOptionsNtNtCs3JYxyklKT9C_12clap_builder6derive14FromArgMatches27update_from_arg_matches_muts0_0Bb_
FNDA:0,_RNCNvXs1_NtNtCsii0YJvqt17R_17simple_ray_tracer9raytracer7optionsNtB7_13RenderOptionsNtNtCs3JYxyklKT9C_12clap_builder6derive14FromArgMatches27update_from_arg_matches_muts1_0Bb_
FNDA:0,_RNCNvXs1_NtNtCsii0YJvqt17R_17simple_ray_tracer9raytracer7optionsNtB7_13RenderOptionsNtNtCs3JYxyklKT9C_12clap_builder6derive14FromArgMatches27update_from_arg_matches_muts2_0Bb_
FNDA:0,_RNCNvXs1_NtNtCsii0YJvqt17R_17simple_ray_tracer9raytracer7optionsNtB7_13RenderOptionsNtNtCs3JYxyklKT9C_12clap_builder6derive14FromArgMatches27update_from_arg_matches_muts3_0Bb_
FNDA:0,_RNCNvXs1_NtNtCsii0YJvqt17R_17simple_ray_tracer9raytracer7optionsNtB7_13RenderOptionsNtNtCs3JYxyklKT9C_12clap_builder6derive14FromArgMatches27update_from_arg_matches_muts4_0Bb_
FNDA:0,_RNCNvXs1_NtNtCsii0YJvqt17R_17simple_ray_tracer9raytracer7optionsNtB7_13RenderOptionsNtNtCs3JYxyklKT9C_12clap_builder6derive14FromArgMatches27update_from_arg_matches_muts5_0Bb_
FNDA:0,_RNCNvXs1_NtNtCsii0YJvqt17R_17simple_ray_tracer9raytracer7optionsNtB7_13RenderOptionsNtNtCs3JYxyklKT9C_12clap_builder6derive14FromArgMatches27update_from_arg_matches_muts6_0Bb_
FNDA:0,_RNCNvXs1_NtNtCsii0YJvqt17R_17simple_ray_tracer9raytracer7optionsNtB7_13RenderOptionsNtNtCs3JYxyklKT9C_12clap_builder6derive14FromArgMatches27update_from_arg_matches_muts7_0Bb_
FNDA:0,_RNCNvXs1_NtNtCsii0YJvqt17R_17simple_ray_tracer9raytracer7optionsNtB7_13RenderOptionsNtNtCs3JYxyklKT9C_12clap_builder6derive14FromArgMatches27update_from_arg_matches_muts8_0Bb_
FNDA:0,_RNCNvXs1_NtNtCsii0YJvqt17R_17simple_ray_tracer9raytracer7optionsNtB7_13RenderOptionsNtNtCs3JYxyklKT9C_12clap_builder6derive14FromArgMatches27update_from_arg_matches_muts_0Bb_
FNDA:0,_RNCNvXs2_NtNtCsii0YJvqt17R_17simple_ray_tracer9raytracer7optionsNtB7_13RenderOptionsNtNtCs3JYxyklKT9C_12clap_builder6derive4Args12augment_args0Bb_
FNDA:0,_RNCNvXs2_NtNtCsii0YJvqt17R_17simple_ray_tracer9raytracer7optionsNtB7_13RenderOptionsNtNtCs3JYxyklKT9C_12clap_builder6derive4Args12augment_argss0_0Bb_
FNDA:0,_RNCNvXs2_NtNtCsii0YJvqt17R_17simple_ray_tracer9raytracer7optionsNtB7_13RenderOptionsNtNtCs3JYxyklKT9C_12clap_builder6derive4Args12augment_argss1_0Bb_
FNDA:0,_RNCNvXs2_NtNtCsii0YJvqt17R_17simple_ray_tracer9raytracer7optionsNtB7_13RenderOptionsNtNtCs3JYxyklKT9C_12clap_builder6derive4Args12augment_argss2_0Bb_
FNDA:0,_RNCNvXs2_NtNtCsii0YJvqt17R_17simple_ray_tracer9raytracer7optionsNtB7_13RenderOptionsNtNtCs3JYxyklKT9C_12clap_builder6derive4Args12augment_argss3_0Bb_
FNDA:0,_RNCNvXs2_NtNtCsii0YJvqt17R_17simple_ray_tracer9raytracer7optionsNtB7_13RenderOptionsNtNtCs3JYxyklKT9C_12clap_builder6derive4Args12augment_argss4_0Bb_
FNDA:0,_RNCNvXs2_NtNtCsii0YJvqt17R_17simple_ray_tracer9raytracer7optionsNtB7_13RenderOptionsNtNtCs3JYxyklKT9C_12clap_builder6derive4Args12augment_argss_0Bb_
FNDA:0,_RNCNvXs2_NtNtCsii0YJvqt17R_17simple_ray_tracer9raytracer7optionsNtB7_13RenderOptionsNtNtCs3JYxyklKT9C_12clap_builder6derive4Args23augment_args_for_update0Bb_
FNDA:0,_RNCNvXs2_NtNtCsii0YJvqt17R_17simple_ray_tracer9raytracer7optionsNtB7_13RenderOptionsNtNtCs3JYxyklKT9C_12clap_builder6derive4Args23augment_args_for_updates0_0Bb_
FNDA:0,_RNCNvXs2_NtNtCsii0YJvqt17R_17simple_ray_tracer9raytracer7optionsNtB7_13RenderOptionsNtNtCs3JYxyklKT9C_12clap_builder6derive4Args23augment_args_for_updates1_0Bb_
FNDA:0,_RNCNvXs2_NtNtCsii0YJvqt17R_17simple_ray_tracer9raytracer7optionsNtB7_13RenderOptionsNtNtCs3JYxyklKT9C_12clap_builder6derive4Args23augment_args_for_updates2_0Bb_
FNDA:0,_RNCNvXs2_NtNtCsii0YJvqt17R_17simple_ray_tracer9raytracer7optionsNtB7_13RenderOptionsNtNtCs3JYxyklKT9C_12clap_builder6derive4Args23augment_args_for_updates3_0Bb_
FNDA:0,_RNCNvXs2_NtNtCsii0YJvqt17R_17simple_ray_tracer9raytracer7optionsNtB7_13RenderOptionsNtNtCs3JYxyklKT9C_12clap_builder6derive4Args23augment_args_for_updates4_0Bb_
FNDA:0,_RNCNvXs2_NtNtCsii0YJvqt17R_17simple_ray_tracer9raytracer7optionsNtB7_13RenderOptionsNtNtCs3JYxyklKT9C_12clap_builder6derive4Args23augment_args_for_updates_0Bb_
FNDA:0,_RNvMs_NtNtCsii0YJvqt17R_17simple_ray_tracer9raytracer7optionsNtB4_13RenderOptions12aspect_ratio
FNDA:0,_RNvMs_NtNtCsii0YJvqt17R_17simple_ray_tracer9raytracer7optionsNtB4_13RenderOptions14viewport_width
FNDA:0,_RNvMs_NtNtCsii0YJvqt17R_17simple_ray_tracer9raytracer7optionsNtB4_13RenderOptions15viewport_height
FNDA:0,_RNvXNtNtCsii0YJvqt17R_17simple_ray_tracer9raytracer7optionsNtNtB4_4vec34Vec3NtNtNtCsh7Pghea5ysh_4core3str6traits7FromStr8from_str
FNF:25
FNH:0
DA:11,0
DA:12,0
DA:15,0
DA:16,0
DA:19,0
DA:20,0
DA:23,0
DA:24,0
DA:27,0
DA:28,0
DA:31,0
DA:33,0
DA:35,0
DA:38,0
DA:39,0
DA:40,0
DA:41,0
DA:45,0
DA:51,0
DA:52,0
DA:53,0
DA:54,0
DA:55,0
DA:56,0
DA:57,0
DA:58,0
DA:59,0
DA:60,0
DA:61,0
DA:62,0
DA:63,0
DA:64,0
DA:65,0
DA:66,0
DA:71,0
DA:72,0
DA:73,0
DA:76,0
DA:77,0
DA:78,0
DA:79,0
DA:82,0
DA:83,0
DA:84,0
BRF:0
BRH:0
LF:47
LH:0
end_of_record
SF:C:\Users\mathi\programming\VS code\rust\RayTracingInOneWeekend\src\raytracer\ray.rs
FN:29,_RINvMNtNtCsii0YJvqt17R_17simple_ray_tracer9raytracer3rayNtB3_3Ray5colorpEB7_
FN:25,_RNvMNtNtCsii0YJvqt17R_17simple_ray_tracer9raytracer3rayNtB2_3Ray2at
FN:13,_RNvMNtNtCsii0YJvqt17R_17simple_ray_tracer9raytracer3rayNtB2_3Ray3new
FN:17,_RNvMNtNtCsii0YJvqt17R_17simple_ray_tracer9raytracer3rayNtB2_3Ray6origin
FN:21,_RNvMNtNtCsii0YJvqt17R_17simple_ray_tracer9raytracer3rayNtB2_3Ray9direction
FNDA:0,_RINvMNtNtCsii0YJvqt17R_17simple_ray_tracer9raytracer3rayNtB3_3Ray5colorpEB7_
FNDA:0,_RNvMNtNtCsii0YJvqt17R_17simple_ray_tracer9raytracer3rayNtB2_3Ray2at
FNDA:0,_RNvMNtNtCsii0YJvqt17R_17simple_ray_tracer9raytracer3rayNtB2_3Ray3new
FNDA:0,_RNvMNtNtCsii0YJvqt17R_17simple_ray_tracer9raytracer3rayNtB2_3Ray6origin
FNDA:0,_RNvMNtNtCsii0YJvqt17R_17simple_ray_tracer9raytracer3rayNtB2_3Ray9direction
FNF:5
FNH:0
DA:13,0
DA:14,0
DA:15,0
DA:17,0
DA:18,0
DA:19,0
DA:21,0
DA:22,0
DA:23,0
DA:25,0
DA:26,0
DA:27,0
DA:29,0
DA:30,0
DA:31,0
DA:32,0
DA:33,0
DA:35,0
DA:36,0
DA:39,0
DA:40,0
DA:41,0
DA:42,0
DA:43,0
DA:44,0
DA:46,0
DA:48,0
DA:49,0
DA:50,0
DA:51,0
DA:52,0
DA:53,0
DA:54,0
DA:55,0
BRF:0
BRH:0
LF:34
LH:0
end_of_record
SF:C:\Users\mathi\programming\VS code\rust\RayTracingInOneWeekend\src\raytracer\sphere.rs
FN:17,_RNvMNtNtCsii0YJvqt17R_17simple_ray_tracer9raytracer6sphereINtB2_6SpherepE3newB6_
FN:27,_RNvXININtNtCsii0YJvqt17R_17simple_ray_tracer9raytracer6spheres_0pEINtB5_6SpherepENtNtB7_7hitable7Hitable3hitB9_
FNDA:0,_RNvMNtNtCsii0YJvqt17R_17simple_ray_tracer9raytracer6sphereINtB2_6SpherepE3newB6_
FNDA:0,_RNvXININtNtCsii0YJvqt17R_17simple_ray_tracer9raytracer6spheres_0pEINtB5_6SpherepENtNtB7_7hitable7Hitable3hitB9_
FNF:2
FNH:0
DA:17,0
DA:18,0
DA:19,0
DA:20,0
DA:21,0
DA:22,0
DA:23,0
DA:27,0
DA:28,0
DA:29,0
DA:30,0
DA:31,0
DA:32,0
DA:33,0
DA:34,0
DA:35,0
DA:36,0
DA:37,0
DA:38,0
DA:39,0
DA:40,0
DA:41,0
DA:42,0
DA:43,0
DA:44,0
DA:45,0
DA:46,0
DA:47,0
DA:48,0
DA:50,0
DA:52,0
DA:54,0
BRF:0
BRH:0
LF:32
LH:0
end_of_record
SF:C:\Users\mathi\programming\VS code\rust\RayTracingInOneWeekend\src\raytracer\vec3.rs
FN:90,_RNCNvMs_NtNtCsii0YJvqt17R_17simple_ray_tracer9raytracer4vec3NtB6_4Vec313sample_square0Ba_
FN:100,_RNCNvMs_NtNtCsii0YJvqt17R_17simple_ray_tracer9raytracer4vec3NtB6_4Vec36random0Ba_
FN:41,_RNvMNtNtCsii0YJvqt17R_17simple_ray_tracer9raytracer4vec3NtB2_4Vec314length_squared
FN:37,_RNvMNtNtCsii0YJvqt17R_17simple_ray_tracer9raytracer4vec3NtB2_4Vec33dot
FN:62,_RNvMNtNtCsii0YJvqt17R_17simple_ray_tracer9raytracer4vec3NtB2_4Vec33map
FN:29,_RNvMNtNtCsii0YJvqt17R_17simple_ray_tracer9raytracer4vec3NtB2_4Vec33new
FN:33,_RNvMNtNtCsii0YJvqt17R_17simple_ray_tracer9raytracer4vec3NtB2_4Vec34zero
FN:54,_RNvMNtNtCsii0YJvqt17R_17simple_ray_tracer9raytracer4vec3NtB2_4Vec35cross
FN:45,_RNvMNtNtCsii0YJvqt17R_17simple_ray_tracer9raytracer4vec3NtB2_4Vec36length
FN:75,_RNvMNtNtCsii0YJvqt17R_17simple_ray_tracer9raytracer4vec3NtB2_4Vec37reflect
FN:79,_RNvMNtNtCsii0YJvqt17R_17simple_ray_tracer9raytracer4vec3NtB2_4Vec37refract
FN:66,_RNvMNtNtCsii0YJvqt17R_17simple_ray_tracer9raytracer4vec3NtB2_4Vec38to_color
FN:70,_RNvMNtNtCsii0YJvqt17R_17simple_ray_tracer9raytracer4vec3NtB2_4Vec39near_zero
FN:49,_RNvMNtNtCsii0YJvqt17R_17simple_ray_tracer9raytracer4vec3NtB2_4Vec39normalize
FN:111,_RNvMs_NtNtCsii0YJvqt17R_17simple_ray_tracer9raytracer4vec3NtB4_4Vec311random_unit
FN:89,_RNvMs_NtNtCsii0YJvqt17R_17simple_ray_tracer9raytracer4vec3NtB4_4Vec313sample_square
FN:132,_RNvMs_NtNtCsii0YJvqt17R_17simple_ray_tracer9raytracer4vec3NtB4_4Vec319random_in_unit_disk
FN:122,_RNvMs_NtNtCsii0YJvqt17R_17simple_ray_tracer9raytracer4vec3NtB4_4Vec320random_on_hemisphere
FN:99,_RNvMs_NtNtCsii0YJvqt17R_17simple_ray_tracer9raytracer4vec3NtB4_4Vec36random
FN:148,_RNvXs0_NtNtCsii0YJvqt17R_17simple_ray_tracer9raytracer4vec3NtB5_4Vec3INtNtNtCsh7Pghea5ysh_4core3ops5arith3AddfE3add
FN:156,_RNvXs1_NtNtCsii0YJvqt17R_17simple_ray_tracer9raytracer4vec3NtB5_4Vec3INtNtNtCsh7Pghea5ysh_4core3ops5arith3DivfE3div
FNDA:0,_RNCNvMs_NtNtCsii0YJvqt17R_17simple_ray_tracer9raytracer4vec3NtB6_4Vec313sample_square0Ba_
FNDA:0,_RNCNvMs_NtNtCsii0YJvqt17R_17simple_ray_tracer9raytracer4vec3NtB6_4Vec36random0Ba_
FNDA:0,_RNvMNtNtCsii0YJvqt17R_17simple_ray_tracer9raytracer4vec3NtB2_4Vec314length_squared
FNDA:0,_RNvMNtNtCsii0YJvqt17R_17simple_ray_tracer9raytracer4vec3NtB2_4Vec33dot
FNDA:0,_RNvMNtNtCsii0YJvqt17R_17simple_ray_tracer9raytracer4vec3NtB2_4Vec33map
FNDA:0,_RNvMNtNtCsii0YJvqt17R_17simple_ray_tracer9raytracer4vec3NtB2_4Vec33new
FNDA:0,_RNvMNtNtCsii0YJvqt17R_17simple_ray_tracer9raytracer4vec3NtB2_4Vec34zero
FNDA:0,_RNvMNtNtCsii0YJvqt17R_17simple_ray_tracer9raytracer4vec3NtB2_4Vec35cross
FNDA:0,_RNvMNtNtCsii0YJvqt17R_17simple_ray_tracer9raytracer4vec3NtB2_4Vec36length
FNDA:0,_RNvMNtNtCsii0YJvqt17R_17simple_ray_tracer9raytracer4vec3NtB2_4Vec37reflect
FNDA:0,_RNvMNtNtCsii0YJvqt17R_17simple_ray_tracer9raytracer4vec3NtB2_4Vec37refract
FNDA:0,_RNvMNtNtCsii0YJvqt17R_17simple_ray_tracer9raytracer4vec3NtB2_4Vec38to_color
FNDA:0,_RNvMNtNtCsii0YJvqt17R_17simple_ray_tracer9raytracer4vec3NtB2_4Vec39near_zero
FNDA:0,_RNvMNtNtCsii0YJvqt17R_17simple_ray_tracer9raytracer4vec3NtB2_4Vec39normalize
FNDA:0,_RNvMs_NtNtCsii0YJvqt17R_17simple_ray_tracer9raytracer4vec3NtB4_4Vec311random_unit
FNDA:0,_RNvMs_NtNtCsii0YJvqt17R_17simple_ray_tracer9raytracer4vec3NtB4_4Vec313sample_square
FNDA:0,_RNvMs_NtNtCsii0YJvqt17R_17simple_ray_tracer9raytracer4vec3NtB4_4Vec319random_in_unit_disk
FNDA:0,_RNvMs_NtNtCsii0YJvqt17R_17simple_ray_tracer9raytracer4vec3NtB4_4Vec320random_on_hemisphere
FNDA:0,_RNvMs_NtNtCsii0YJvqt17R_17simple_ray_tracer9raytracer4vec3NtB4_4Vec36random
FNDA:0,_RNvXs0_NtNtCsii0YJvqt17R_17simple_ray_tracer9raytracer4vec3NtB5_4Vec3INtNtNtCsh7Pghea5ysh_4core3ops5arith3AddfE3add
FNDA:0,_RNvXs1_NtNtCsii0YJvqt17R_17simple_ray_tracer9raytracer4vec3NtB5_4Vec3INtNtNtCsh7Pghea5ysh_4core3ops5arith3DivfE3div
FNF:21
FNH:0
DA:29,0
DA:30,0
DA:31,0
DA:33,0
DA:34,0
DA:35,0
DA:37,0
DA:38,0
DA:39,0
DA:41,0
DA:42,0
DA:43,0
DA:45,0
DA:46,0
DA:47,0
DA:49,0
DA:50,0
DA:51,0
DA:52,0
DA:54,0
DA:55,0
DA:56,0
DA:57,0
DA:58,0
DA:59,0
DA:60,0
DA:62,0
DA:63,0
DA:64,0
DA:66,0
DA:67,0
DA:68,0
DA:70,0
DA:71,0
DA:72,0
DA:73,0
DA:75,0
DA:76,0
DA:77,0
DA:79,0
DA:80,0
DA:81,0
DA:82,0
DA:83,0
DA:84,0
DA:89,0
DA:90,0
DA:91,0
DA:92,0
DA:93,0
DA:94,0
DA:95,0
DA:96,0
DA:97,0
DA:99,0
DA:100,0
DA:101,0
DA:102,0
DA:103,0
DA:104,0
DA:105,0
DA:106,0
DA:107,0
DA:108,0
DA:109,0
DA:111,0
DA:113,0
DA:114,0
DA:115,0
DA:116,0
DA:117,0
DA:118,0
DA:120,0
DA:122,0
DA:123,0
DA:124,0
DA:126,0
DA:128,0
DA:130,0
DA:132,0
DA:134,0
DA:135,0
DA:136,0
DA:137,0
DA:138,0
DA:139,0
DA:140,0
DA:142,0
DA:148,0
DA:149,0
DA:150,0
DA:156,0
DA:157,0
DA:158,0
BRF:0
BRH:0
LF:98
LH:0
end_of_record